target datalayout = "e-m:e-p270:32:32-p271:32:32-p272:64:64-i64:64-i128:128-f80:128-n8:16:32:64-S128"
target triple = "x86_64-pc-linux-gnu"

%struct._generic_SUNMatrix = type { ptr, ptr, ptr }
%struct._generic_SUNMatrix_Ops = type { ptr, ptr, ptr, ptr, ptr, ptr, ptr, ptr, ptr, ptr }
%struct._SUNMatrixContent_Sparse = type { i64, i64, i64, i64, ptr, i32, ptr, ptr, ptr, ptr, ptr, ptr }

; Function Attrs: nounwind uwtable
define ptr @SUNSparseMatrix(i64 noundef %0, i64 noundef %1, i64 noundef %2, i32 noundef %3, ptr noundef %4) #0 {
  %6 = alloca i64, align 8
  %7 = alloca i64, align 8
  %8 = alloca i64, align 8
  %9 = alloca i32, align 4
  %10 = alloca ptr, align 8
  %11 = alloca ptr, align 8
  %12 = alloca ptr, align 8
  %13 = alloca ptr, align 8
  store i64 %0, ptr %6, align 8, !tbaa !3
  store i64 %1, ptr %7, align 8, !tbaa !3
  store i64 %2, ptr %8, align 8, !tbaa !3
  store i32 %3, ptr %9, align 4, !tbaa !7
  store ptr %4, ptr %10, align 8, !tbaa !9
  call void @llvm.lifetime.start.p0(i64 8, ptr %11) #8
  %14 = load ptr, ptr %10, align 8, !tbaa !9
  store ptr %14, ptr %11, align 8, !tbaa !9
  call void @llvm.lifetime.start.p0(i64 8, ptr %12) #8
  call void @llvm.lifetime.start.p0(i64 8, ptr %13) #8
  store ptr null, ptr %12, align 8, !tbaa !12
  %15 = load ptr, ptr %10, align 8, !tbaa !9
  %16 = call ptr @SUNMatNewEmpty(ptr noundef %15)
  store ptr %16, ptr %12, align 8, !tbaa !12
  %17 = load ptr, ptr %12, align 8, !tbaa !12
  %18 = getelementptr inbounds nuw %struct._generic_SUNMatrix, ptr %17, i32 0, i32 1
  %19 = load ptr, ptr %18, align 8, !tbaa !14
  %20 = getelementptr inbounds nuw %struct._generic_SUNMatrix_Ops, ptr %19, i32 0, i32 0
  store ptr @SUNMatGetID_Sparse, ptr %20, align 8, !tbaa !17
  %21 = load ptr, ptr %12, align 8, !tbaa !12
  %22 = getelementptr inbounds nuw %struct._generic_SUNMatrix, ptr %21, i32 0, i32 1
  %23 = load ptr, ptr %22, align 8, !tbaa !14
  %24 = getelementptr inbounds nuw %struct._generic_SUNMatrix_Ops, ptr %23, i32 0, i32 1
  store ptr @SUNMatClone_Sparse, ptr %24, align 8, !tbaa !19
  %25 = load ptr, ptr %12, align 8, !tbaa !12
  %26 = getelementptr inbounds nuw %struct._generic_SUNMatrix, ptr %25, i32 0, i32 1
  %27 = load ptr, ptr %26, align 8, !tbaa !14
  %28 = getelementptr inbounds nuw %struct._generic_SUNMatrix_Ops, ptr %27, i32 0, i32 2
  store ptr @SUNMatDestroy_Sparse, ptr %28, align 8, !tbaa !20
  %29 = load ptr, ptr %12, align 8, !tbaa !12
  %30 = getelementptr inbounds nuw %struct._generic_SUNMatrix, ptr %29, i32 0, i32 1
  %31 = load ptr, ptr %30, align 8, !tbaa !14
  %32 = getelementptr inbounds nuw %struct._generic_SUNMatrix_Ops, ptr %31, i32 0, i32 3
  store ptr @SUNMatZero_Sparse, ptr %32, align 8, !tbaa !21
  %33 = load ptr, ptr %12, align 8, !tbaa !12
  %34 = getelementptr inbounds nuw %struct._generic_SUNMatrix, ptr %33, i32 0, i32 1
  %35 = load ptr, ptr %34, align 8, !tbaa !14
  %36 = getelementptr inbounds nuw %struct._generic_SUNMatrix_Ops, ptr %35, i32 0, i32 4
  store ptr @SUNMatCopy_Sparse, ptr %36, align 8, !tbaa !22
  %37 = load ptr, ptr %12, align 8, !tbaa !12
  %38 = getelementptr inbounds nuw %struct._generic_SUNMatrix, ptr %37, i32 0, i32 1
  %39 = load ptr, ptr %38, align 8, !tbaa !14
  %40 = getelementptr inbounds nuw %struct._generic_SUNMatrix_Ops, ptr %39, i32 0, i32 5
  store ptr @SUNMatScaleAdd_Sparse, ptr %40, align 8, !tbaa !23
  %41 = load ptr, ptr %12, align 8, !tbaa !12
  %42 = getelementptr inbounds nuw %struct._generic_SUNMatrix, ptr %41, i32 0, i32 1
  %43 = load ptr, ptr %42, align 8, !tbaa !14
  %44 = getelementptr inbounds nuw %struct._generic_SUNMatrix_Ops, ptr %43, i32 0, i32 6
  store ptr @SUNMatScaleAddI_Sparse, ptr %44, align 8, !tbaa !24
  %45 = load ptr, ptr %12, align 8, !tbaa !12
  %46 = getelementptr inbounds nuw %struct._generic_SUNMatrix, ptr %45, i32 0, i32 1
  %47 = load ptr, ptr %46, align 8, !tbaa !14
  %48 = getelementptr inbounds nuw %struct._generic_SUNMatrix_Ops, ptr %47, i32 0, i32 8
  store ptr @SUNMatMatvec_Sparse, ptr %48, align 8, !tbaa !25
  %49 = load ptr, ptr %12, align 8, !tbaa !12
  %50 = getelementptr inbounds nuw %struct._generic_SUNMatrix, ptr %49, i32 0, i32 1
  %51 = load ptr, ptr %50, align 8, !tbaa !14
  %52 = getelementptr inbounds nuw %struct._generic_SUNMatrix_Ops, ptr %51, i32 0, i32 9
  store ptr @SUNMatSpace_Sparse, ptr %52, align 8, !tbaa !26
  store ptr null, ptr %13, align 8, !tbaa !27
  %53 = call noalias ptr @malloc(i64 noundef 96) #9
  store ptr %53, ptr %13, align 8, !tbaa !27
  %54 = load ptr, ptr %13, align 8, !tbaa !27
  %55 = load ptr, ptr %12, align 8, !tbaa !12
  %56 = getelementptr inbounds nuw %struct._generic_SUNMatrix, ptr %55, i32 0, i32 0
  store ptr %54, ptr %56, align 8, !tbaa !29
  %57 = load i32, ptr %9, align 4, !tbaa !7
  %58 = load ptr, ptr %13, align 8, !tbaa !27
  %59 = getelementptr inbounds nuw %struct._SUNMatrixContent_Sparse, ptr %58, i32 0, i32 5
  store i32 %57, ptr %59, align 8, !tbaa !30
  %60 = load i64, ptr %6, align 8, !tbaa !3
  %61 = load ptr, ptr %13, align 8, !tbaa !27
  %62 = getelementptr inbounds nuw %struct._SUNMatrixContent_Sparse, ptr %61, i32 0, i32 0
  store i64 %60, ptr %62, align 8, !tbaa !35
  %63 = load i64, ptr %7, align 8, !tbaa !3
  %64 = load ptr, ptr %13, align 8, !tbaa !27
  %65 = getelementptr inbounds nuw %struct._SUNMatrixContent_Sparse, ptr %64, i32 0, i32 1
  store i64 %63, ptr %65, align 8, !tbaa !36
  %66 = load i64, ptr %8, align 8, !tbaa !3
  %67 = load ptr, ptr %13, align 8, !tbaa !27
  %68 = getelementptr inbounds nuw %struct._SUNMatrixContent_Sparse, ptr %67, i32 0, i32 2
  store i64 %66, ptr %68, align 8, !tbaa !37
  %69 = load i32, ptr %9, align 4, !tbaa !7
  switch i32 %69, label %102 [
    i32 0, label %70
    i32 1, label %86
  ]

70:                                               ; preds = %5
  %71 = load i64, ptr %7, align 8, !tbaa !3
  %72 = load ptr, ptr %13, align 8, !tbaa !27
  %73 = getelementptr inbounds nuw %struct._SUNMatrixContent_Sparse, ptr %72, i32 0, i32 3
  store i64 %71, ptr %73, align 8, !tbaa !38
  %74 = load ptr, ptr %13, align 8, !tbaa !27
  %75 = getelementptr inbounds nuw %struct._SUNMatrixContent_Sparse, ptr %74, i32 0, i32 6
  %76 = load ptr, ptr %13, align 8, !tbaa !27
  %77 = getelementptr inbounds nuw %struct._SUNMatrixContent_Sparse, ptr %76, i32 0, i32 8
  store ptr %75, ptr %77, align 8, !tbaa !39
  %78 = load ptr, ptr %13, align 8, !tbaa !27
  %79 = getelementptr inbounds nuw %struct._SUNMatrixContent_Sparse, ptr %78, i32 0, i32 7
  %80 = load ptr, ptr %13, align 8, !tbaa !27
  %81 = getelementptr inbounds nuw %struct._SUNMatrixContent_Sparse, ptr %80, i32 0, i32 9
  store ptr %79, ptr %81, align 8, !tbaa !40
  %82 = load ptr, ptr %13, align 8, !tbaa !27
  %83 = getelementptr inbounds nuw %struct._SUNMatrixContent_Sparse, ptr %82, i32 0, i32 10
  store ptr null, ptr %83, align 8, !tbaa !41
  %84 = load ptr, ptr %13, align 8, !tbaa !27
  %85 = getelementptr inbounds nuw %struct._SUNMatrixContent_Sparse, ptr %84, i32 0, i32 11
  store ptr null, ptr %85, align 8, !tbaa !42
  br label %102

86:                                               ; preds = %5
  %87 = load i64, ptr %6, align 8, !tbaa !3
  %88 = load ptr, ptr %13, align 8, !tbaa !27
  %89 = getelementptr inbounds nuw %struct._SUNMatrixContent_Sparse, ptr %88, i32 0, i32 3
  store i64 %87, ptr %89, align 8, !tbaa !38
  %90 = load ptr, ptr %13, align 8, !tbaa !27
  %91 = getelementptr inbounds nuw %struct._SUNMatrixContent_Sparse, ptr %90, i32 0, i32 6
  %92 = load ptr, ptr %13, align 8, !tbaa !27
  %93 = getelementptr inbounds nuw %struct._SUNMatrixContent_Sparse, ptr %92, i32 0, i32 10
  store ptr %91, ptr %93, align 8, !tbaa !41
  %94 = load ptr, ptr %13, align 8, !tbaa !27
  %95 = getelementptr inbounds nuw %struct._SUNMatrixContent_Sparse, ptr %94, i32 0, i32 7
  %96 = load ptr, ptr %13, align 8, !tbaa !27
  %97 = getelementptr inbounds nuw %struct._SUNMatrixContent_Sparse, ptr %96, i32 0, i32 11
  store ptr %95, ptr %97, align 8, !tbaa !42
  %98 = load ptr, ptr %13, align 8, !tbaa !27
  %99 = getelementptr inbounds nuw %struct._SUNMatrixContent_Sparse, ptr %98, i32 0, i32 8
  store ptr null, ptr %99, align 8, !tbaa !39
  %100 = load ptr, ptr %13, align 8, !tbaa !27
  %101 = getelementptr inbounds nuw %struct._SUNMatrixContent_Sparse, ptr %100, i32 0, i32 9
  store ptr null, ptr %101, align 8, !tbaa !40
  br label %102

102:                                              ; preds = %86, %5, %70
  %103 = load ptr, ptr %13, align 8, !tbaa !27
  %104 = getelementptr inbounds nuw %struct._SUNMatrixContent_Sparse, ptr %103, i32 0, i32 4
  store ptr null, ptr %104, align 8, !tbaa !43
  %105 = load ptr, ptr %13, align 8, !tbaa !27
  %106 = getelementptr inbounds nuw %struct._SUNMatrixContent_Sparse, ptr %105, i32 0, i32 6
  store ptr null, ptr %106, align 8, !tbaa !44
  %107 = load ptr, ptr %13, align 8, !tbaa !27
  %108 = getelementptr inbounds nuw %struct._SUNMatrixContent_Sparse, ptr %107, i32 0, i32 7
  store ptr null, ptr %108, align 8, !tbaa !45
  %109 = load i64, ptr %8, align 8, !tbaa !3
  %110 = call noalias ptr @calloc(i64 noundef %109, i64 noundef 8) #10
  %111 = load ptr, ptr %13, align 8, !tbaa !27
  %112 = getelementptr inbounds nuw %struct._SUNMatrixContent_Sparse, ptr %111, i32 0, i32 4
  store ptr %110, ptr %112, align 8, !tbaa !43
  %113 = load i64, ptr %8, align 8, !tbaa !3
  %114 = call noalias ptr @calloc(i64 noundef %113, i64 noundef 8) #10
  %115 = load ptr, ptr %13, align 8, !tbaa !27
  %116 = getelementptr inbounds nuw %struct._SUNMatrixContent_Sparse, ptr %115, i32 0, i32 6
  store ptr %114, ptr %116, align 8, !tbaa !44
  %117 = load ptr, ptr %13, align 8, !tbaa !27
  %118 = getelementptr inbounds nuw %struct._SUNMatrixContent_Sparse, ptr %117, i32 0, i32 3
  %119 = load i64, ptr %118, align 8, !tbaa !38
  %120 = add nsw i64 %119, 1
  %121 = call noalias ptr @calloc(i64 noundef %120, i64 noundef 8) #10
  %122 = load ptr, ptr %13, align 8, !tbaa !27
  %123 = getelementptr inbounds nuw %struct._SUNMatrixContent_Sparse, ptr %122, i32 0, i32 7
  store ptr %121, ptr %123, align 8, !tbaa !45
  %124 = load ptr, ptr %13, align 8, !tbaa !27
  %125 = getelementptr inbounds nuw %struct._SUNMatrixContent_Sparse, ptr %124, i32 0, i32 7
  %126 = load ptr, ptr %125, align 8, !tbaa !45
  %127 = load ptr, ptr %13, align 8, !tbaa !27
  %128 = getelementptr inbounds nuw %struct._SUNMatrixContent_Sparse, ptr %127, i32 0, i32 3
  %129 = load i64, ptr %128, align 8, !tbaa !38
  %130 = getelementptr inbounds i64, ptr %126, i64 %129
  store i64 0, ptr %130, align 8, !tbaa !3
  %131 = load ptr, ptr %12, align 8, !tbaa !12
  call void @llvm.lifetime.end.p0(i64 8, ptr %13) #8
  call void @llvm.lifetime.end.p0(i64 8, ptr %12) #8
  call void @llvm.lifetime.end.p0(i64 8, ptr %11) #8
  ret ptr %131
}

; Function Attrs: nounwind uwtable
define i32 @SUNSparseMatrix_ToCSC(ptr noundef %0, ptr noundef %1) #0 {
  %3 = alloca ptr, align 8
  %4 = alloca ptr, align 8
  %5 = alloca ptr, align 8
  store ptr %0, ptr %3, align 8, !tbaa !12
  store ptr %1, ptr %4, align 8, !tbaa !65
  call void @llvm.lifetime.start.p0(i64 8, ptr %5) #8
  %6 = load ptr, ptr %3, align 8, !tbaa !12
  %7 = getelementptr inbounds nuw %struct._generic_SUNMatrix, ptr %6, i32 0, i32 2
  %8 = load ptr, ptr %7, align 8, !tbaa !46
  store ptr %8, ptr %5, align 8, !tbaa !9
  %9 = load ptr, ptr %3, align 8, !tbaa !12
  %10 = getelementptr inbounds nuw %struct._generic_SUNMatrix, ptr %9, i32 0, i32 0
  %11 = load ptr, ptr %10, align 8, !tbaa !29
  %12 = getelementptr inbounds nuw %struct._SUNMatrixContent_Sparse, ptr %11, i32 0, i32 0
  %13 = load i64, ptr %12, align 8, !tbaa !35
  %14 = load ptr, ptr %3, align 8, !tbaa !12
  %15 = getelementptr inbounds nuw %struct._generic_SUNMatrix, ptr %14, i32 0, i32 0
  %16 = load ptr, ptr %15, align 8, !tbaa !29
  %17 = getelementptr inbounds nuw %struct._SUNMatrixContent_Sparse, ptr %16, i32 0, i32 1
  %18 = load i64, ptr %17, align 8, !tbaa !36
  %19 = load ptr, ptr %3, align 8, !tbaa !12
  %20 = getelementptr inbounds nuw %struct._generic_SUNMatrix, ptr %19, i32 0, i32 0
  %21 = load ptr, ptr %20, align 8, !tbaa !29
  %22 = getelementptr inbounds nuw %struct._SUNMatrixContent_Sparse, ptr %21, i32 0, i32 2
  %23 = load i64, ptr %22, align 8, !tbaa !37
  %24 = load ptr, ptr %3, align 8, !tbaa !12
  %25 = getelementptr inbounds nuw %struct._generic_SUNMatrix, ptr %24, i32 0, i32 2
  %26 = load ptr, ptr %25, align 8, !tbaa !46
  %27 = call ptr @SUNSparseMatrix(i64 noundef %13, i64 noundef %18, i64 noundef %23, i32 noundef 0, ptr noundef %26)
  %28 = load ptr, ptr %4, align 8, !tbaa !65
  store ptr %27, ptr %28, align 8, !tbaa !12
  %29 = load ptr, ptr %3, align 8, !tbaa !12
  %30 = load ptr, ptr %4, align 8, !tbaa !65
  %31 = load ptr, ptr %30, align 8, !tbaa !12
  %32 = call i32 @format_convert(ptr noundef %29, ptr noundef %31)
  call void @llvm.lifetime.end.p0(i64 8, ptr %5) #8
  ret i32 0
}