; Function Attrs: nounwind uwtable
define noundef i32 @SUNSparseMatrix_ToCSC(ptr noundef readonly captures(none) %0, ptr noundef writeonly captures(none) initializes((0, 8)) %1) local_unnamed_addr #0 {
  %3 = getelementptr inbounds nuw i8, ptr %0, i64 16
  %4 = load ptr, ptr %0, align 8, !tbaa !20
  %5 = load i64, ptr %4, align 8, !tbaa !28
  %6 = getelementptr inbounds nuw i8, ptr %4, i64 8
  %7 = load i64, ptr %6, align 8, !tbaa !29
  %8 = getelementptr inbounds nuw i8, ptr %4, i64 16
  %9 = load i64, ptr %8, align 8, !tbaa !30
  %10 = load ptr, ptr %3, align 8, !tbaa !36
  %11 = tail call ptr @SUNMatNewEmpty(ptr noundef %10) #17
  %12 = getelementptr inbounds nuw i8, ptr %11, i64 8
  %13 = load ptr, ptr %12, align 8, !tbaa !3
  store ptr @SUNMatGetID_Sparse, ptr %13, align 8, !tbaa !10
  %14 = getelementptr inbounds nuw i8, ptr %13, i64 8
  store ptr @SUNMatClone_Sparse, ptr %14, align 8, !tbaa !12
  %15 = getelementptr inbounds nuw i8, ptr %13, i64 16
  store ptr @SUNMatDestroy_Sparse, ptr %15, align 8, !tbaa !13
  %16 = getelementptr inbounds nuw i8, ptr %13, i64 24
  store ptr @SUNMatZero_Sparse, ptr %16, align 8, !tbaa !14
  %17 = getelementptr inbounds nuw i8, ptr %13, i64 32
  store ptr @SUNMatCopy_Sparse, ptr %17, align 8, !tbaa !15
  %18 = getelementptr inbounds nuw i8, ptr %13, i64 40
  store ptr @SUNMatScaleAdd_Sparse, ptr %18, align 8, !tbaa !16
  %19 = getelementptr inbounds nuw i8, ptr %13, i64 48
  store ptr @SUNMatScaleAddI_Sparse, ptr %19, align 8, !tbaa !17
  %20 = getelementptr inbounds nuw i8, ptr %13, i64 64
  store ptr @SUNMatMatvec_Sparse, ptr %20, align 8, !tbaa !18
  %21 = getelementptr inbounds nuw i8, ptr %13, i64 72
  store ptr @SUNMatSpace_Sparse, ptr %21, align 8, !tbaa !19
  %22 = tail call noalias dereferenceable_or_null(96) ptr @malloc(i64 noundef 96) #18
  store ptr %22, ptr %11, align 8, !tbaa !20
  %23 = getelementptr inbounds nuw i8, ptr %22, i64 40
  store i32 0, ptr %23, align 8, !tbaa !21
  store i64 %5, ptr %22, align 8, !tbaa !28
  %24 = getelementptr inbounds nuw i8, ptr %22, i64 8
  store i64 %7, ptr %24, align 8, !tbaa !29
  %25 = getelementptr inbounds nuw i8, ptr %22, i64 16
  store i64 %9, ptr %25, align 8, !tbaa !30
  %26 = getelementptr inbounds nuw i8, ptr %22, i64 24
  store i64 %7, ptr %26, align 8, !tbaa !31
  %27 = getelementptr inbounds nuw i8, ptr %22, i64 48
  %28 = getelementptr inbounds nuw i8, ptr %22, i64 64
  store ptr %27, ptr %28, align 8, !tbaa !32
  %29 = getelementptr inbounds nuw i8, ptr %22, i64 56
  %30 = getelementptr inbounds nuw i8, ptr %22, i64 72
  store ptr %29, ptr %30, align 8, !tbaa !32
  %31 = getelementptr inbounds nuw i8, ptr %22, i64 80
  tail call void @llvm.memset.p0.i64(ptr noundef nonnull align 8 dereferenceable(16) %31, i8 0, i64 16, i1 false)
  %32 = add nsw i64 %7, 1
  %33 = getelementptr inbounds nuw i8, ptr %22, i64 32
  %34 = tail call noalias ptr @calloc(i64 noundef %9, i64 noundef 8) #19
  store ptr %34, ptr %33, align 8, !tbaa !33
  %35 = tail call noalias ptr @calloc(i64 noundef %9, i64 noundef 8) #19
  store ptr %35, ptr %27, align 8, !tbaa !34
  %36 = tail call noalias ptr @calloc(i64 noundef %32, i64 noundef 8) #19
  store ptr %36, ptr %29, align 8, !tbaa !35
  store ptr %11, ptr %1, align 8, !tbaa !57
  tail call fastcc void @format_convert(ptr noundef nonnull %0, ptr noundef nonnull %11)
  ret i32 0
}